target datalayout = "e-m:e-p270:32:32-p271:32:32-p272:64:64-i64:64-i128:128-f80:128-n8:16:32:64-S128"
target triple = "x86_64-pc-linux-gnu"

%struct.H5L_trav_gi_t = type { ptr }

@.str = private unnamed_addr constant [100 x i8] c"generated/home/dtcxzyw/WorkSpace/Projects/compilers/llvm-opt-benchmark/bench/hdf5/hdf5/src/H5Lint.c\00", align 1
@H5E_LINK_g = external global i64, align 8
@.str.11 = private unnamed_addr constant [19 x i8] c"name doesn't exist\00", align 1
@H5E_EXISTS_g = external global i64, align 8
@__func__.H5L_get_info = private unnamed_addr constant [13 x i8] c"H5L_get_info\00", align 1

; Function Attrs: nounwind uwtable
define i32 @H5L_get_info(ptr noundef %0, ptr noundef %1, ptr noundef %2) #0 {
  %4 = alloca ptr, align 8
  %5 = alloca ptr, align 8
  %6 = alloca ptr, align 8
  %7 = alloca %struct.H5L_trav_gi_t, align 8
  %8 = alloca i32, align 4
  %9 = alloca i8, align 1
  store ptr %0, ptr %4, align 8
  store ptr %1, ptr %5, align 8
  store ptr %2, ptr %6, align 8
  store i32 0, ptr %8, align 4
  store i8 0, ptr %9, align 1
  %10 = load ptr, ptr %6, align 8
  %11 = getelementptr inbounds %struct.H5L_trav_gi_t, ptr %7, i32 0, i32 0
  store ptr %10, ptr %11, align 8
  %12 = load ptr, ptr %4, align 8
  %13 = load ptr, ptr %5, align 8
  %14 = call i32 @H5G_traverse(ptr noundef %12, ptr noundef %13, i32 noundef 5, ptr noundef @H5L__get_info_cb, ptr noundef %7)
  %15 = icmp slt i32 %14, 0
  br i1 %15, label %16, label %31

16:                                               ; preds = %3
  br label %17

17:                                               ; preds = %16
  br label %18

18:                                               ; preds = %17
  br label %19

19:                                               ; preds = %18
  %20 = load i64, ptr @H5E_LINK_g, align 8
  %21 = load i64, ptr @H5E_EXISTS_g, align 8
  %22 = call i32 (ptr, ptr, i32, i64, i64, ptr, ...) @H5E_printf_stack(ptr noundef @.str, ptr noundef @__func__.H5L_get_info, i32 noundef 1816, i64 noundef %20, i64 noundef %21, ptr noundef @.str.11)
  br label %23

23:                                               ; preds = %19
  store i8 1, ptr %9, align 1
  %24 = load i8, ptr %9, align 1
  %25 = trunc i8 %24 to i1
  %26 = zext i1 %25 to i8
  store i8 %26, ptr %9, align 1
  br label %27

27:                                               ; preds = %23
  br label %28

28:                                               ; preds = %27
  store i32 -1, ptr %8, align 4
  br label %32

29:                                               ; No predecessors!
  br label %30

30:                                               ; preds = %29
  br label %31

31:                                               ; preds = %30, %3
  br label %32

32:                                               ; preds = %31, %28
  %33 = load i32, ptr %8, align 4
  ret i32 %33
}