; Function Attrs: nounwind uwtable
define range(i32 -1, 1) i32 @H5L_get_info(ptr noundef %0, ptr noundef %1, ptr noundef %2) local_unnamed_addr #0 {
  %4 = alloca %struct.H5L_trav_gi_t, align 8
  store ptr %2, ptr %4, align 8
  %5 = call i32 @H5G_traverse(ptr noundef %0, ptr noundef %1, i32 noundef 5, ptr noundef nonnull @H5L__get_info_cb, ptr noundef nonnull %4) #10
  %6 = icmp slt i32 %5, 0
  br i1 %6, label %7, label %11

7:                                                ; preds = %3
  %8 = load i64, ptr @H5E_LINK_g, align 8
  %9 = load i64, ptr @H5E_EXISTS_g, align 8
  %10 = call i32 (ptr, ptr, i32, i64, i64, ptr, ...) @H5E_printf_stack(ptr noundef nonnull @.str, ptr noundef nonnull @__func__.H5L_get_info, i32 noundef 1816, i64 noundef %8, i64 noundef %9, ptr noundef nonnull @.str.11) #10
  br label %11

11:                                               ; preds = %3, %7
  %.0 = phi i32 [ -1, %7 ], [ 0, %3 ]
  ret i32 %.0
}